(dp0
VBMI
p1
(dp2
S'fat'
p3
(dp4
Vage
p5
(dp6
S'21-40'
p7
(dp8
Vgender
p9
(dp10
Vmale
p11
Vhigh
p12
sVfemale
p13
S'normal'
p14
sssS'61-80'
p15
g12
sS'1-20'
p16
Vnormal
p17
sS'81-100'
p18
g12
sS'41-60'
p19
g12
sssS'Overweight'
p20
g17
sS'Low'
p21
Vlow
p22
sS'VeryFat'
p23
S'high'
p24
sS'Normal'
p25
g17
ss.